; Function Attrs: mustprogress nofree norecurse nosync nounwind willreturn memory(argmem: write) uwtable
define void @_ZN5faiss9ITQMatrixC2Ei(ptr noundef nonnull writeonly align 8 captures(none) dereferenceable(112) initializes((0, 19), (24, 73), (76, 84), (88, 112)) %0, i32 noundef %1) unnamed_addr #17 align 2 {
  %3 = getelementptr inbounds nuw i8, ptr %0, i64 8
  store i32 %1, ptr %3, align 8, !tbaa !37
  %4 = getelementptr inbounds nuw i8, ptr %0, i64 12
  store i32 %1, ptr %4, align 4, !tbaa !29
  %5 = getelementptr inbounds nuw i8, ptr %0, i64 16
  %6 = getelementptr inbounds nuw i8, ptr %0, i64 17
  store i8 0, ptr %6, align 1, !tbaa !22
  %7 = getelementptr inbounds nuw i8, ptr %0, i64 18
  store i8 0, ptr %7, align 2, !tbaa !39
  %8 = getelementptr inbounds nuw i8, ptr %0, i64 24
  store i8 0, ptr %5, align 8, !tbaa !16
  tail call void @llvm.memset.p0.i64(ptr noundef nonnull align 8 dereferenceable(49) %8, i8 0, i64 49, i1 false)
  store ptr getelementptr inbounds nuw inrange(-16, 48) (i8, ptr @_ZTVN5faiss9ITQMatrixE, i64 16), ptr %0, align 8, !tbaa !41
  %9 = getelementptr inbounds nuw i8, ptr %0, i64 76
  store i32 50, ptr %9, align 4, !tbaa !90
  %10 = getelementptr inbounds nuw i8, ptr %0, i64 80
  store i32 123, ptr %10, align 8, !tbaa !83
  %11 = getelementptr inbounds nuw i8, ptr %0, i64 88
  tail call void @llvm.memset.p0.i64(ptr noundef nonnull align 8 dereferenceable(24) %11, i8 0, i64 24, i1 false)
  ret void
}